target datalayout = "e-m:e-p270:32:32-p271:32:32-p272:64:64-i64:64-i128:128-f80:128-n8:16:32:64-S128"
target triple = "x86_64-pc-linux-gnu"

%struct.jpeg_decompress_struct = type { ptr, ptr, ptr, ptr, i32, i32, ptr, i32, i32, i32, i32, i32, i32, i32, double, i32, i32, i32, i32, i32, i32, i32, i32, i32, i32, i32, i32, i32, i32, i32, i32, i32, i32, ptr, i32, i32, i32, i32, i32, ptr, [4 x ptr], [4 x ptr], [4 x ptr], i32, ptr, i32, i32, [16 x i8], [16 x i8], [16 x i8], i32, i32, i8, i8, i8, i16, i16, i32, i8, i32, ptr, i32, i32, i32, i32, ptr, i32, [4 x ptr], i32, i32, i32, [10 x i32], i32, i32, i32, i32, i32, ptr, ptr, ptr, ptr, ptr, ptr, ptr, ptr, ptr, ptr, ptr }
%struct.my_cquantizer = type { %struct.jpeg_color_quantizer, ptr, i32, ptr, i32, [4 x i32], i32, [4 x ptr], [4 x ptr], i32 }
%struct.jpeg_color_quantizer = type { ptr, ptr, ptr, ptr, ptr }

; Function Attrs: nounwind uwtable
define internal void @color_quantize3(ptr noundef %0, ptr noundef %1, ptr noundef %2, i32 noundef %3) #0 {
  %5 = alloca ptr, align 8
  %6 = alloca ptr, align 8
  %7 = alloca ptr, align 8
  %8 = alloca i32, align 4
  %9 = alloca ptr, align 8
  %10 = alloca i32, align 4
  %11 = alloca ptr, align 8
  %12 = alloca ptr, align 8
  %13 = alloca ptr, align 8
  %14 = alloca ptr, align 8
  %15 = alloca ptr, align 8
  %16 = alloca i32, align 4
  %17 = alloca i32, align 4
  %18 = alloca i32, align 4
  store ptr %0, ptr %5, align 8, !tbaa !3
  store ptr %1, ptr %6, align 8, !tbaa !72
  store ptr %2, ptr %7, align 8, !tbaa !72
  store i32 %3, ptr %8, align 4, !tbaa !57
  call void @llvm.lifetime.start.p0(i64 8, ptr %9) #4
  %19 = load ptr, ptr %5, align 8, !tbaa !3
  %20 = getelementptr inbounds nuw %struct.jpeg_decompress_struct, ptr %19, i32 0, i32 87
  %21 = load ptr, ptr %20, align 8, !tbaa !45
  store ptr %21, ptr %9, align 8, !tbaa !44
  call void @llvm.lifetime.start.p0(i64 4, ptr %10) #4
  call void @llvm.lifetime.start.p0(i64 8, ptr %11) #4
  call void @llvm.lifetime.start.p0(i64 8, ptr %12) #4
  call void @llvm.lifetime.start.p0(i64 8, ptr %13) #4
  %22 = load ptr, ptr %9, align 8, !tbaa !44
  %23 = getelementptr inbounds nuw %struct.my_cquantizer, ptr %22, i32 0, i32 3
  %24 = load ptr, ptr %23, align 8, !tbaa !78
  %25 = getelementptr inbounds ptr, ptr %24, i64 0
  %26 = load ptr, ptr %25, align 8, !tbaa !73
  store ptr %26, ptr %13, align 8, !tbaa !73
  call void @llvm.lifetime.start.p0(i64 8, ptr %14) #4
  %27 = load ptr, ptr %9, align 8, !tbaa !44
  %28 = getelementptr inbounds nuw %struct.my_cquantizer, ptr %27, i32 0, i32 3
  %29 = load ptr, ptr %28, align 8, !tbaa !78
  %30 = getelementptr inbounds ptr, ptr %29, i64 1
  %31 = load ptr, ptr %30, align 8, !tbaa !73
  store ptr %31, ptr %14, align 8, !tbaa !73
  call void @llvm.lifetime.start.p0(i64 8, ptr %15) #4
  %32 = load ptr, ptr %9, align 8, !tbaa !44
  %33 = getelementptr inbounds nuw %struct.my_cquantizer, ptr %32, i32 0, i32 3
  %34 = load ptr, ptr %33, align 8, !tbaa !78
  %35 = getelementptr inbounds ptr, ptr %34, i64 2
  %36 = load ptr, ptr %35, align 8, !tbaa !73
  store ptr %36, ptr %15, align 8, !tbaa !73
  call void @llvm.lifetime.start.p0(i64 4, ptr %16) #4
  call void @llvm.lifetime.start.p0(i64 4, ptr %17) #4
  call void @llvm.lifetime.start.p0(i64 4, ptr %18) #4
  %37 = load ptr, ptr %5, align 8, !tbaa !3
  %38 = getelementptr inbounds nuw %struct.jpeg_decompress_struct, ptr %37, i32 0, i32 27
  %39 = load i32, ptr %38, align 8, !tbaa !66
  store i32 %39, ptr %18, align 4, !tbaa !57
  store i32 0, ptr %16, align 4, !tbaa !57
  br label %40

40:                                               ; preds = %96, %4
  %41 = load i32, ptr %16, align 4, !tbaa !57
  %42 = load i32, ptr %8, align 4, !tbaa !57
  %43 = icmp slt i32 %41, %42
  br i1 %43, label %44, label %99

44:                                               ; preds = %40
  %45 = load ptr, ptr %6, align 8, !tbaa !72
  %46 = load i32, ptr %16, align 4, !tbaa !57
  %47 = sext i32 %46 to i64
  %48 = getelementptr inbounds ptr, ptr %45, i64 %47
  %49 = load ptr, ptr %48, align 8, !tbaa !73
  store ptr %49, ptr %11, align 8, !tbaa !73
  %50 = load ptr, ptr %7, align 8, !tbaa !72
  %51 = load i32, ptr %16, align 4, !tbaa !57
  %52 = sext i32 %51 to i64
  %53 = getelementptr inbounds ptr, ptr %50, i64 %52
  %54 = load ptr, ptr %53, align 8, !tbaa !73
  store ptr %54, ptr %12, align 8, !tbaa !73
  %55 = load i32, ptr %18, align 4, !tbaa !57
  store i32 %55, ptr %17, align 4, !tbaa !57
  br label %56

56:                                               ; preds = %92, %44
  %57 = load i32, ptr %17, align 4, !tbaa !57
  %58 = icmp ugt i32 %57, 0
  br i1 %58, label %59, label %95

59:                                               ; preds = %56
  %60 = load ptr, ptr %13, align 8, !tbaa !73
  %61 = load ptr, ptr %11, align 8, !tbaa !73
  %62 = getelementptr inbounds nuw i8, ptr %61, i32 1
  store ptr %62, ptr %11, align 8, !tbaa !73
  %63 = load i8, ptr %61, align 1, !tbaa !36
  %64 = zext i8 %63 to i64
  %65 = getelementptr inbounds nuw i8, ptr %60, i64 %64
  %66 = load i8, ptr %65, align 1, !tbaa !36
  %67 = zext i8 %66 to i32
  store i32 %67, ptr %10, align 4, !tbaa !57
  %68 = load ptr, ptr %14, align 8, !tbaa !73
  %69 = load ptr, ptr %11, align 8, !tbaa !73
  %70 = getelementptr inbounds nuw i8, ptr %69, i32 1
  store ptr %70, ptr %11, align 8, !tbaa !73
  %71 = load i8, ptr %69, align 1, !tbaa !36
  %72 = zext i8 %71 to i64
  %73 = getelementptr inbounds nuw i8, ptr %68, i64 %72
  %74 = load i8, ptr %73, align 1, !tbaa !36
  %75 = zext i8 %74 to i32
  %76 = load i32, ptr %10, align 4, !tbaa !57
  %77 = add nsw i32 %76, %75
  store i32 %77, ptr %10, align 4, !tbaa !57
  %78 = load ptr, ptr %15, align 8, !tbaa !73
  %79 = load ptr, ptr %11, align 8, !tbaa !73
  %80 = getelementptr inbounds nuw i8, ptr %79, i32 1
  store ptr %80, ptr %11, align 8, !tbaa !73
  %81 = load i8, ptr %79, align 1, !tbaa !36
  %82 = zext i8 %81 to i64
  %83 = getelementptr inbounds nuw i8, ptr %78, i64 %82
  %84 = load i8, ptr %83, align 1, !tbaa !36
  %85 = zext i8 %84 to i32
  %86 = load i32, ptr %10, align 4, !tbaa !57
  %87 = add nsw i32 %86, %85
  store i32 %87, ptr %10, align 4, !tbaa !57
  %88 = load i32, ptr %10, align 4, !tbaa !57
  %89 = trunc i32 %88 to i8
  %90 = load ptr, ptr %12, align 8, !tbaa !73
  %91 = getelementptr inbounds nuw i8, ptr %90, i32 1
  store ptr %91, ptr %12, align 8, !tbaa !73
  store i8 %89, ptr %90, align 1, !tbaa !36
  br label %92

92:                                               ; preds = %59
  %93 = load i32, ptr %17, align 4, !tbaa !57
  %94 = add i32 %93, -1
  store i32 %94, ptr %17, align 4, !tbaa !57
  br label %56, !llvm.loop !85

95:                                               ; preds = %56
  br label %96

96:                                               ; preds = %95
  %97 = load i32, ptr %16, align 4, !tbaa !57
  %98 = add nsw i32 %97, 1
  store i32 %98, ptr %16, align 4, !tbaa !57
  br label %40, !llvm.loop !86

99:                                               ; preds = %40
  call void @llvm.lifetime.end.p0(i64 4, ptr %18) #4
  call void @llvm.lifetime.end.p0(i64 4, ptr %17) #4
  call void @llvm.lifetime.end.p0(i64 4, ptr %16) #4
  call void @llvm.lifetime.end.p0(i64 8, ptr %15) #4
  call void @llvm.lifetime.end.p0(i64 8, ptr %14) #4
  call void @llvm.lifetime.end.p0(i64 8, ptr %13) #4
  call void @llvm.lifetime.end.p0(i64 8, ptr %12) #4
  call void @llvm.lifetime.end.p0(i64 8, ptr %11) #4
  call void @llvm.lifetime.end.p0(i64 4, ptr %10) #4
  call void @llvm.lifetime.end.p0(i64 8, ptr %9) #4
  ret void
}