; Function Attrs: nofree norecurse nosync nounwind memory(readwrite, inaccessiblemem: none) uwtable
define internal void @color_quantize3(ptr noundef readonly captures(none) %0, ptr noundef readonly captures(none) %1, ptr noundef readonly captures(none) %2, i32 noundef %3) #3 {
  %5 = getelementptr inbounds nuw i8, ptr %0, i64 624
  %6 = load ptr, ptr %5, align 8, !tbaa !42
  %7 = getelementptr inbounds nuw i8, ptr %6, i64 56
  %8 = load ptr, ptr %7, align 8, !tbaa !84
  %9 = load ptr, ptr %8, align 8, !tbaa !63
  %10 = getelementptr inbounds nuw i8, ptr %8, i64 8
  %11 = load ptr, ptr %10, align 8, !tbaa !63
  %12 = getelementptr inbounds nuw i8, ptr %8, i64 16
  %13 = load ptr, ptr %12, align 8, !tbaa !63
  %14 = getelementptr inbounds nuw i8, ptr %0, i64 136
  %15 = load i32, ptr %14, align 8, !tbaa !70
  %16 = icmp slt i32 %3, 1
  %.not27 = icmp eq i32 %15, 0
  %or.cond = select i1 %16, i1 true, i1 %.not27
  br i1 %or.cond, label %._crit_edge34, label %.lr.ph.preheader

.lr.ph.preheader:                                 ; preds = %4
  %wide.trip.count = zext nneg i32 %3 to i64
  br label %.lr.ph

.lr.ph:                                           ; preds = %.lr.ph.preheader, %._crit_edge
  %indvars.iv = phi i64 [ 0, %.lr.ph.preheader ], [ %indvars.iv.next, %._crit_edge ]
  %17 = getelementptr inbounds nuw ptr, ptr %1, i64 %indvars.iv
  %18 = load ptr, ptr %17, align 8, !tbaa !63
  %19 = getelementptr inbounds nuw ptr, ptr %2, i64 %indvars.iv
  %20 = load ptr, ptr %19, align 8, !tbaa !63
  br label %21

21:                                               ; preds = %.lr.ph, %21
  %.030 = phi ptr [ %18, %.lr.ph ], [ %33, %21 ]
  %.02429 = phi i32 [ %15, %.lr.ph ], [ %40, %21 ]
  %.02628 = phi ptr [ %20, %.lr.ph ], [ %39, %21 ]
  %22 = getelementptr inbounds nuw i8, ptr %.030, i64 1
  %23 = load i8, ptr %.030, align 1, !tbaa !34
  %24 = zext i8 %23 to i64
  %25 = getelementptr inbounds nuw i8, ptr %9, i64 %24
  %26 = load i8, ptr %25, align 1, !tbaa !34
  %27 = getelementptr inbounds nuw i8, ptr %.030, i64 2
  %28 = load i8, ptr %22, align 1, !tbaa !34
  %29 = zext i8 %28 to i64
  %30 = getelementptr inbounds nuw i8, ptr %11, i64 %29
  %31 = load i8, ptr %30, align 1, !tbaa !34
  %32 = add i8 %31, %26
  %33 = getelementptr inbounds nuw i8, ptr %.030, i64 3
  %34 = load i8, ptr %27, align 1, !tbaa !34
  %35 = zext i8 %34 to i64
  %36 = getelementptr inbounds nuw i8, ptr %13, i64 %35
  %37 = load i8, ptr %36, align 1, !tbaa !34
  %38 = add i8 %32, %37
  %39 = getelementptr inbounds nuw i8, ptr %.02628, i64 1
  store i8 %38, ptr %.02628, align 1, !tbaa !34
  %40 = add i32 %.02429, -1
  %.not = icmp eq i32 %40, 0
  br i1 %.not, label %._crit_edge, label %21, !llvm.loop !89

._crit_edge:                                      ; preds = %21
  %indvars.iv.next = add nuw nsw i64 %indvars.iv, 1
  %exitcond.not = icmp eq i64 %indvars.iv.next, %wide.trip.count
  br i1 %exitcond.not, label %._crit_edge34, label %.lr.ph, !llvm.loop !90

._crit_edge34:                                    ; preds = %._crit_edge, %4
  ret void
}